; Function Attrs: nounwind uwtable
define hidden zeroext i1 @arena_decay_ms_set(ptr noundef %tsdn, ptr noundef %arena, i32 noundef %state, i64 noundef %decay_ms) local_unnamed_addr #0 {
entry:
  %0 = load atomic i8, ptr @background_thread_enabled_state monotonic, align 1
  %1 = and i8 %0, 1
  %tobool.i.not.i = icmp eq i8 %1, 0
  %spec.select.i = select i1 %tobool.i.not.i, i32 2, i32 1
  %pa_shard = getelementptr inbounds i8, ptr %arena, i64 10648
  %call1 = tail call zeroext i1 @pa_decay_ms_set(ptr noundef %tsdn, ptr noundef nonnull %pa_shard, i32 noundef %state, i64 noundef %decay_ms, i32 noundef %spec.select.i) #15
  ret i1 %call1
}